#include <math.h>
#include <stdio.h>
#include <stdlib.h>
#include <string.h>

int main()
{
	char a[1000];
	int num[300]={0},j=0,x;
	gets(a);
	int len=strlen(a);
	for(int i=0;i<len;i++)
	{
		if(a[i]!=' '&&i!=len-1)
		{
			num[j]++;
		}
		else if(a[i]==' '&&i!=len-1)
		{
			j++;
		}
		else if(i=len-1)
		{
			x=j;
		}

	}
	for(j=0;j<x;j++)
	{
		if(num[j]!=0)
		{
		    printf("%d,",num[j]);
		}
	}
	printf("%d",num[x]+1);
	return 0;
}