; ModuleID = '28/1658.c'
source_filename = "28/1658.c"
target datalayout = "e-m:e-p270:32:32-p271:32:32-p272:64:64-i64:64-f80:128-n8:16:32:64-S128"
target triple = "x86_64-pc-linux-gnu"

@.str = private unnamed_addr constant [4 x i8] c"%d,\00", align 1
@.str.1 = private unnamed_addr constant [3 x i8] c"%d\00", align 1

; Function Attrs: noinline nounwind uwtable
define dso_local i32 @main() #0 {
  %1 = alloca i32, align 4
  %2 = alloca [1000 x i8], align 16
  %3 = alloca [300 x i32], align 16
  %4 = alloca i32, align 4
  %5 = alloca i32, align 4
  %6 = alloca i32, align 4
  %7 = alloca i32, align 4
  store i32 0, i32* %1, align 4
  %8 = bitcast [300 x i32]* %3 to i8*
  call void @llvm.memset.p0i8.i64(i8* align 16 %8, i8 0, i64 1200, i1 false)
  store i32 0, i32* %4, align 4
  %9 = getelementptr inbounds [1000 x i8], [1000 x i8]* %2, i64 0, i64 0
  %10 = call i32 (i8*, ...) bitcast (i32 (...)* @gets to i32 (i8*, ...)*)(i8* %9)
  %11 = getelementptr inbounds [1000 x i8], [1000 x i8]* %2, i64 0, i64 0
  %12 = call i64 @strlen(i8* %11) #4
  %13 = trunc i64 %12 to i32
  store i32 %13, i32* %6, align 4
  store i32 0, i32* %7, align 4
  br label %14

14:                                               ; preds = %60, %0
  %15 = load i32, i32* %7, align 4
  %16 = load i32, i32* %6, align 4
  %17 = icmp slt i32 %15, %16
  br i1 %17, label %18, label %63

18:                                               ; preds = %14
  %19 = load i32, i32* %7, align 4
  %20 = sext i32 %19 to i64
  %21 = getelementptr inbounds [1000 x i8], [1000 x i8]* %2, i64 0, i64 %20
  %22 = load i8, i8* %21, align 1
  %23 = sext i8 %22 to i32
  %24 = icmp ne i32 %23, 32
  br i1 %24, label %25, label %36

25:                                               ; preds = %18
  %26 = load i32, i32* %7, align 4
  %27 = load i32, i32* %6, align 4
  %28 = sub nsw i32 %27, 1
  %29 = icmp ne i32 %26, %28
  br i1 %29, label %30, label %36

30:                                               ; preds = %25
  %31 = load i32, i32* %4, align 4
  %32 = sext i32 %31 to i64
  %33 = getelementptr inbounds [300 x i32], [300 x i32]* %3, i64 0, i64 %32
  %34 = load i32, i32* %33, align 4
  %35 = add nsw i32 %34, 1
  store i32 %35, i32* %33, align 4
  br label %59

36:                                               ; preds = %25, %18
  %37 = load i32, i32* %7, align 4
  %38 = sext i32 %37 to i64
  %39 = getelementptr inbounds [1000 x i8], [1000 x i8]* %2, i64 0, i64 %38
  %40 = load i8, i8* %39, align 1
  %41 = sext i8 %40 to i32
  %42 = icmp eq i32 %41, 32
  br i1 %42, label %43, label %51

43:                                               ; preds = %36
  %44 = load i32, i32* %7, align 4
  %45 = load i32, i32* %6, align 4
  %46 = sub nsw i32 %45, 1
  %47 = icmp ne i32 %44, %46
  br i1 %47, label %48, label %51

48:                                               ; preds = %43
  %49 = load i32, i32* %4, align 4
  %50 = add nsw i32 %49, 1
  store i32 %50, i32* %4, align 4
  br label %58

51:                                               ; preds = %43, %36
  %52 = load i32, i32* %6, align 4
  %53 = sub nsw i32 %52, 1
  store i32 %53, i32* %7, align 4
  %54 = icmp ne i32 %53, 0
  br i1 %54, label %55, label %57

55:                                               ; preds = %51
  %56 = load i32, i32* %4, align 4
  store i32 %56, i32* %5, align 4
  br label %57

57:                                               ; preds = %55, %51
  br label %58

58:                                               ; preds = %57, %48
  br label %59

59:                                               ; preds = %58, %30
  br label %60

60:                                               ; preds = %59
  %61 = load i32, i32* %7, align 4
  %62 = add nsw i32 %61, 1
  store i32 %62, i32* %7, align 4
  br label %14

63:                                               ; preds = %14
  store i32 0, i32* %4, align 4
  br label %64

64:                                               ; preds = %81, %63
  %65 = load i32, i32* %4, align 4
  %66 = load i32, i32* %5, align 4
  %67 = icmp slt i32 %65, %66
  br i1 %67, label %68, label %84

68:                                               ; preds = %64
  %69 = load i32, i32* %4, align 4
  %70 = sext i32 %69 to i64
  %71 = getelementptr inbounds [300 x i32], [300 x i32]* %3, i64 0, i64 %70
  %72 = load i32, i32* %71, align 4
  %73 = icmp ne i32 %72, 0
  br i1 %73, label %74, label %80

74:                                               ; preds = %68
  %75 = load i32, i32* %4, align 4
  %76 = sext i32 %75 to i64
  %77 = getelementptr inbounds [300 x i32], [300 x i32]* %3, i64 0, i64 %76
  %78 = load i32, i32* %77, align 4
  %79 = call i32 (i8*, ...) @printf(i8* getelementptr inbounds ([4 x i8], [4 x i8]* @.str, i64 0, i64 0), i32 %78)
  br label %80

80:                                               ; preds = %74, %68
  br label %81

81:                                               ; preds = %80
  %82 = load i32, i32* %4, align 4
  %83 = add nsw i32 %82, 1
  store i32 %83, i32* %4, align 4
  br label %64

84:                                               ; preds = %64
  %85 = load i32, i32* %5, align 4
  %86 = sext i32 %85 to i64
  %87 = getelementptr inbounds [300 x i32], [300 x i32]* %3, i64 0, i64 %86
  %88 = load i32, i32* %87, align 4
  %89 = add nsw i32 %88, 1
  %90 = call i32 (i8*, ...) @printf(i8* getelementptr inbounds ([3 x i8], [3 x i8]* @.str.1, i64 0, i64 0), i32 %89)
  ret i32 0
}

; Function Attrs: argmemonly nounwind willreturn
declare void @llvm.memset.p0i8.i64(i8* nocapture writeonly, i8, i64, i1 immarg) #1

declare dso_local i32 @gets(...) #2

; Function Attrs: nounwind readonly
declare dso_local i64 @strlen(i8*) #3

declare dso_local i32 @printf(i8*, ...) #2


!llvm.module.flags = !{!0}
!llvm.ident = !{!1}

!0 = !{i32 1, !"wchar_size", i32 4}
!1 = !{!"clang version 10.0.0-4ubuntu1 "}
