; ModuleID = 'source-C-CXX/27/1658.c'
source_filename = "source-C-CXX/27/1658.c"
target datalayout = "e-m:e-p270:32:32-p271:32:32-p272:64:64-i64:64-f80:128-n8:16:32:64-S128"
target triple = "x86_64-pc-linux-gnu"

@.str = private unnamed_addr constant [4 x i8] c"%d,\00", align 1
@.str.1 = private unnamed_addr constant [3 x i8] c"%d\00", align 1

; Function Attrs: nounwind sspstrong uwtable
define dso_local i32 @main() local_unnamed_addr #0 {
  %1 = alloca [1000 x i8], align 16
  %2 = alloca [300 x i32], align 16
  %3 = getelementptr inbounds [1000 x i8], [1000 x i8]* %1, i64 0, i64 0
  call void @llvm.lifetime.start.p0i8(i64 1000, i8* nonnull %3) #6
  %4 = bitcast [300 x i32]* %2 to i8*
  call void @llvm.lifetime.start.p0i8(i64 1200, i8* nonnull %4) #6
  call void @llvm.memset.p0i8.i64(i8* noundef nonnull align 16 dereferenceable(1200) %4, i8 0, i64 1200, i1 false)
  %5 = call i32 (i8*, ...) bitcast (i32 (...)* @gets to i32 (i8*, ...)*)(i8* nonnull %3) #6
  %6 = call i64 @strlen(i8* noundef nonnull %3) #7
  %7 = trunc i64 %6 to i32
  %8 = add nsw i32 %7, -1
  %9 = icmp eq i32 %8, 0
  %10 = icmp sgt i32 %7, 0
  br i1 %10, label %15, label %53

11:                                               ; preds = %37
  %12 = icmp sgt i32 %38, 0
  br i1 %12, label %13, label %53

13:                                               ; preds = %11
  %14 = zext i32 %38 to i64
  br label %43

15:                                               ; preds = %0, %37
  %16 = phi i32 [ %41, %37 ], [ 0, %0 ]
  %17 = phi i32 [ %39, %37 ], [ 0, %0 ]
  %18 = phi i32 [ %38, %37 ], [ undef, %0 ]
  %19 = sext i32 %16 to i64
  %20 = getelementptr inbounds [1000 x i8], [1000 x i8]* %1, i64 0, i64 %19
  %21 = load i8, i8* %20, align 1, !tbaa !5
  %22 = icmp eq i8 %21, 32
  %23 = icmp eq i32 %16, %8
  %24 = select i1 %22, i1 true, i1 %23
  br i1 %24, label %30, label %25

25:                                               ; preds = %15
  %26 = sext i32 %17 to i64
  %27 = getelementptr inbounds [300 x i32], [300 x i32]* %2, i64 0, i64 %26
  %28 = load i32, i32* %27, align 4, !tbaa !8
  %29 = add nsw i32 %28, 1
  store i32 %29, i32* %27, align 4, !tbaa !8
  br label %37

30:                                               ; preds = %15
  %31 = icmp ne i8 %21, 32
  %32 = select i1 %31, i1 true, i1 %23
  br i1 %32, label %35, label %33

33:                                               ; preds = %30
  %34 = add nsw i32 %17, 1
  br label %37

35:                                               ; preds = %30
  %36 = select i1 %9, i32 %18, i32 %17
  br label %37

37:                                               ; preds = %35, %25, %33
  %38 = phi i32 [ %18, %25 ], [ %18, %33 ], [ %36, %35 ]
  %39 = phi i32 [ %17, %25 ], [ %34, %33 ], [ %17, %35 ]
  %40 = phi i32 [ %16, %25 ], [ %16, %33 ], [ %8, %35 ]
  %41 = add nsw i32 %40, 1
  %42 = icmp slt i32 %41, %7
  br i1 %42, label %15, label %11, !llvm.loop !10

43:                                               ; preds = %13, %50
  %44 = phi i64 [ 0, %13 ], [ %51, %50 ]
  %45 = getelementptr inbounds [300 x i32], [300 x i32]* %2, i64 0, i64 %44
  %46 = load i32, i32* %45, align 4, !tbaa !8
  %47 = icmp eq i32 %46, 0
  br i1 %47, label %50, label %48

48:                                               ; preds = %43
  %49 = call i32 (i8*, ...) @printf(i8* nonnull dereferenceable(1) getelementptr inbounds ([4 x i8], [4 x i8]* @.str, i64 0, i64 0), i32 %46)
  br label %50

50:                                               ; preds = %43, %48
  %51 = add nuw nsw i64 %44, 1
  %52 = icmp eq i64 %51, %14
  br i1 %52, label %53, label %43, !llvm.loop !12

53:                                               ; preds = %50, %0, %11
  %54 = phi i32 [ %38, %11 ], [ undef, %0 ], [ %38, %50 ]
  %55 = sext i32 %54 to i64
  %56 = getelementptr inbounds [300 x i32], [300 x i32]* %2, i64 0, i64 %55
  %57 = load i32, i32* %56, align 4, !tbaa !8
  %58 = add nsw i32 %57, 1
  %59 = call i32 (i8*, ...) @printf(i8* nonnull dereferenceable(1) getelementptr inbounds ([3 x i8], [3 x i8]* @.str.1, i64 0, i64 0), i32 %58)
  call void @llvm.lifetime.end.p0i8(i64 1200, i8* nonnull %4) #6
  call void @llvm.lifetime.end.p0i8(i64 1000, i8* nonnull %3) #6
  ret i32 0
}

; Function Attrs: argmemonly mustprogress nofree nosync nounwind willreturn
declare void @llvm.lifetime.start.p0i8(i64 immarg, i8* nocapture) #1

; Function Attrs: argmemonly mustprogress nofree nounwind willreturn writeonly
declare void @llvm.memset.p0i8.i64(i8* nocapture writeonly, i8, i64, i1 immarg) #2

declare i32 @gets(...) local_unnamed_addr #3

; Function Attrs: argmemonly mustprogress nofree nounwind readonly willreturn
declare i64 @strlen(i8* nocapture) local_unnamed_addr #4

; Function Attrs: argmemonly mustprogress nofree nosync nounwind willreturn
declare void @llvm.lifetime.end.p0i8(i64 immarg, i8* nocapture) #1

; Function Attrs: nofree nounwind
declare noundef i32 @printf(i8* nocapture noundef readonly, ...) local_unnamed_addr #5


!llvm.module.flags = !{!0, !1, !2, !3}
!llvm.ident = !{!4}

!0 = !{i32 1, !"wchar_size", i32 4}
!1 = !{i32 7, !"PIC Level", i32 2}
!2 = !{i32 7, !"PIE Level", i32 2}
!3 = !{i32 7, !"uwtable", i32 1}
!4 = !{!"clang version 13.0.0"}
!5 = !{!6, !6, i64 0}
!6 = !{!"omnipotent char", !7, i64 0}
!7 = !{!"Simple C/C++ TBAA"}
!8 = !{!9, !9, i64 0}
!9 = !{!"int", !6, i64 0}
!10 = distinct !{!10, !11}
!11 = !{!"llvm.loop.mustprogress"}
!12 = distinct !{!12, !11}
